
/home/dev/projects/Lab1/risc_asm.elf:     file format elf32-littleriscv


Disassembly of section .text:

00010074 <register_fini>:
   10074:	00000793          	li	a5,0
   10078:	00078863          	beqz	a5,10088 <register_fini+0x14>
   1007c:	00000517          	auipc	a0,0x0
   10080:	62450513          	addi	a0,a0,1572 # 106a0 <__libc_fini_array>
   10084:	6080006f          	j	1068c <atexit>
   10088:	00008067          	ret

0001008c <_start>:
   1008c:	00002197          	auipc	gp,0x2
   10090:	fcc18193          	addi	gp,gp,-52 # 12058 <__global_pointer$>
   10094:	c3418513          	addi	a0,gp,-972 # 11c8c <completed.1>
   10098:	c5018613          	addi	a2,gp,-944 # 11ca8 <__BSS_END__>
   1009c:	40a60633          	sub	a2,a2,a0
   100a0:	00000593          	li	a1,0
   100a4:	3ec000ef          	jal	ra,10490 <memset>
   100a8:	00000517          	auipc	a0,0x0
   100ac:	5e450513          	addi	a0,a0,1508 # 1068c <atexit>
   100b0:	00050863          	beqz	a0,100c0 <_start+0x34>
   100b4:	00000517          	auipc	a0,0x0
   100b8:	5ec50513          	addi	a0,a0,1516 # 106a0 <__libc_fini_array>
   100bc:	5d0000ef          	jal	ra,1068c <atexit>
   100c0:	33c000ef          	jal	ra,103fc <__libc_init_array>
   100c4:	00012503          	lw	a0,0(sp)
   100c8:	00410593          	addi	a1,sp,4
   100cc:	00000613          	li	a2,0
   100d0:	13c000ef          	jal	ra,1020c <main>
   100d4:	2f80006f          	j	103cc <exit>

000100d8 <__do_global_dtors_aux>:
   100d8:	ff010113          	addi	sp,sp,-16
   100dc:	00812423          	sw	s0,8(sp)
   100e0:	c3418413          	addi	s0,gp,-972 # 11c8c <completed.1>
   100e4:	00044783          	lbu	a5,0(s0)
   100e8:	00112623          	sw	ra,12(sp)
   100ec:	02079263          	bnez	a5,10110 <__do_global_dtors_aux+0x38>
   100f0:	00000793          	li	a5,0
   100f4:	00078a63          	beqz	a5,10108 <__do_global_dtors_aux+0x30>
   100f8:	00001517          	auipc	a0,0x1
   100fc:	6e850513          	addi	a0,a0,1768 # 117e0 <__EH_FRAME_BEGIN__>
   10100:	00000097          	auipc	ra,0x0
   10104:	000000e7          	jalr	zero # 0 <register_fini-0x10074>
   10108:	00100793          	li	a5,1
   1010c:	00f40023          	sb	a5,0(s0)
   10110:	00c12083          	lw	ra,12(sp)
   10114:	00812403          	lw	s0,8(sp)
   10118:	01010113          	addi	sp,sp,16
   1011c:	00008067          	ret

00010120 <frame_dummy>:
   10120:	00000793          	li	a5,0
   10124:	00078c63          	beqz	a5,1013c <frame_dummy+0x1c>
   10128:	c3818593          	addi	a1,gp,-968 # 11c90 <object.0>
   1012c:	00001517          	auipc	a0,0x1
   10130:	6b450513          	addi	a0,a0,1716 # 117e0 <__EH_FRAME_BEGIN__>
   10134:	00000317          	auipc	t1,0x0
   10138:	00000067          	jr	zero # 0 <register_fini-0x10074>
   1013c:	00008067          	ret

00010140 <_Z8find_rowPiii>:
   10140:	fc010113          	addi	sp,sp,-64
   10144:	02112e23          	sw	ra,60(sp)
   10148:	02812c23          	sw	s0,56(sp)
   1014c:	04010413          	addi	s0,sp,64
   10150:	fca42623          	sw	a0,-52(s0)
   10154:	fcb42423          	sw	a1,-56(s0)
   10158:	fcc42223          	sw	a2,-60(s0)
   1015c:	fe042623          	sw	zero,-20(s0)
   10160:	fc042e23          	sw	zero,-36(s0)
   10164:	fe042423          	sw	zero,-24(s0)
   10168:	fe842703          	lw	a4,-24(s0)
   1016c:	fc842783          	lw	a5,-56(s0)
   10170:	08f75263          	bge	a4,a5,101f4 <_Z8find_rowPiii+0xb4>
   10174:	fe042223          	sw	zero,-28(s0)
   10178:	fe042023          	sw	zero,-32(s0)
   1017c:	fe042703          	lw	a4,-32(s0)
   10180:	fc442783          	lw	a5,-60(s0)
   10184:	04f75663          	bge	a4,a5,101d0 <_Z8find_rowPiii+0x90>
   10188:	fc442583          	lw	a1,-60(s0)
   1018c:	fe842503          	lw	a0,-24(s0)
   10190:	164000ef          	jal	ra,102f4 <__mulsi3>
   10194:	00050793          	mv	a5,a0
   10198:	00078713          	mv	a4,a5
   1019c:	fe042783          	lw	a5,-32(s0)
   101a0:	00f707b3          	add	a5,a4,a5
   101a4:	00279793          	slli	a5,a5,0x2
   101a8:	fcc42703          	lw	a4,-52(s0)
   101ac:	00f707b3          	add	a5,a4,a5
   101b0:	0007a783          	lw	a5,0(a5)
   101b4:	fe442703          	lw	a4,-28(s0)
   101b8:	00f707b3          	add	a5,a4,a5
   101bc:	fef42223          	sw	a5,-28(s0)
   101c0:	fe042783          	lw	a5,-32(s0)
   101c4:	00178793          	addi	a5,a5,1
   101c8:	fef42023          	sw	a5,-32(s0)
   101cc:	fb1ff06f          	j	1017c <_Z8find_rowPiii+0x3c>
   101d0:	fe442703          	lw	a4,-28(s0)
   101d4:	fdc42783          	lw	a5,-36(s0)
   101d8:	00e7d663          	bge	a5,a4,101e4 <_Z8find_rowPiii+0xa4>
   101dc:	fe842783          	lw	a5,-24(s0)
   101e0:	fef42623          	sw	a5,-20(s0)
   101e4:	fe842783          	lw	a5,-24(s0)
   101e8:	00178793          	addi	a5,a5,1
   101ec:	fef42423          	sw	a5,-24(s0)
   101f0:	f79ff06f          	j	10168 <_Z8find_rowPiii+0x28>
   101f4:	fec42783          	lw	a5,-20(s0)
   101f8:	00078513          	mv	a0,a5
   101fc:	03c12083          	lw	ra,60(sp)
   10200:	03812403          	lw	s0,56(sp)
   10204:	04010113          	addi	sp,sp,64
   10208:	00008067          	ret

0001020c <main>:
   1020c:	f5010113          	addi	sp,sp,-176
   10210:	0a112623          	sw	ra,172(sp)
   10214:	0a812423          	sw	s0,168(sp)
   10218:	0b010413          	addi	s0,sp,176
   1021c:	f5440793          	addi	a5,s0,-172
   10220:	09000713          	li	a4,144
   10224:	00070613          	mv	a2,a4
   10228:	00000593          	li	a1,0
   1022c:	00078513          	mv	a0,a5
   10230:	260000ef          	jal	ra,10490 <memset>
   10234:	fe042623          	sw	zero,-20(s0)
   10238:	fec42703          	lw	a4,-20(s0)
   1023c:	00500793          	li	a5,5
   10240:	08e7c263          	blt	a5,a4,102c4 <main+0xb8>
   10244:	fe042423          	sw	zero,-24(s0)
   10248:	fe842703          	lw	a4,-24(s0)
   1024c:	00500793          	li	a5,5
   10250:	06e7c263          	blt	a5,a4,102b4 <main+0xa8>
   10254:	fe842583          	lw	a1,-24(s0)
   10258:	fec42503          	lw	a0,-20(s0)
   1025c:	098000ef          	jal	ra,102f4 <__mulsi3>
   10260:	00050793          	mv	a5,a0
   10264:	00a00593          	li	a1,10
   10268:	00078513          	mv	a0,a5
   1026c:	130000ef          	jal	ra,1039c <__modsi3>
   10270:	00050793          	mv	a5,a0
   10274:	00078693          	mv	a3,a5
   10278:	fec42703          	lw	a4,-20(s0)
   1027c:	00070793          	mv	a5,a4
   10280:	00179793          	slli	a5,a5,0x1
   10284:	00e787b3          	add	a5,a5,a4
   10288:	00179793          	slli	a5,a5,0x1
   1028c:	fe842703          	lw	a4,-24(s0)
   10290:	00e787b3          	add	a5,a5,a4
   10294:	00279793          	slli	a5,a5,0x2
   10298:	ff040713          	addi	a4,s0,-16
   1029c:	00f707b3          	add	a5,a4,a5
   102a0:	f6d7a223          	sw	a3,-156(a5)
   102a4:	fe842783          	lw	a5,-24(s0)
   102a8:	00178793          	addi	a5,a5,1
   102ac:	fef42423          	sw	a5,-24(s0)
   102b0:	f99ff06f          	j	10248 <main+0x3c>
   102b4:	fec42783          	lw	a5,-20(s0)
   102b8:	00178793          	addi	a5,a5,1
   102bc:	fef42623          	sw	a5,-20(s0)
   102c0:	f79ff06f          	j	10238 <main+0x2c>
   102c4:	f5440793          	addi	a5,s0,-172
   102c8:	00600613          	li	a2,6
   102cc:	00600593          	li	a1,6
   102d0:	00078513          	mv	a0,a5
   102d4:	e6dff0ef          	jal	ra,10140 <_Z8find_rowPiii>
   102d8:	fea42223          	sw	a0,-28(s0)
   102dc:	00000793          	li	a5,0
   102e0:	00078513          	mv	a0,a5
   102e4:	0ac12083          	lw	ra,172(sp)
   102e8:	0a812403          	lw	s0,168(sp)
   102ec:	0b010113          	addi	sp,sp,176
   102f0:	00008067          	ret

000102f4 <__mulsi3>:
   102f4:	00050613          	mv	a2,a0
   102f8:	00000513          	li	a0,0
   102fc:	0015f693          	andi	a3,a1,1
   10300:	00068463          	beqz	a3,10308 <__mulsi3+0x14>
   10304:	00c50533          	add	a0,a0,a2
   10308:	0015d593          	srli	a1,a1,0x1
   1030c:	00161613          	slli	a2,a2,0x1
   10310:	fe0596e3          	bnez	a1,102fc <__mulsi3+0x8>
   10314:	00008067          	ret

00010318 <__divsi3>:
   10318:	06054063          	bltz	a0,10378 <__umodsi3+0x10>
   1031c:	0605c663          	bltz	a1,10388 <__umodsi3+0x20>

00010320 <__udivsi3>:
   10320:	00058613          	mv	a2,a1
   10324:	00050593          	mv	a1,a0
   10328:	fff00513          	li	a0,-1
   1032c:	02060c63          	beqz	a2,10364 <__udivsi3+0x44>
   10330:	00100693          	li	a3,1
   10334:	00b67a63          	bgeu	a2,a1,10348 <__udivsi3+0x28>
   10338:	00c05863          	blez	a2,10348 <__udivsi3+0x28>
   1033c:	00161613          	slli	a2,a2,0x1
   10340:	00169693          	slli	a3,a3,0x1
   10344:	feb66ae3          	bltu	a2,a1,10338 <__udivsi3+0x18>
   10348:	00000513          	li	a0,0
   1034c:	00c5e663          	bltu	a1,a2,10358 <__udivsi3+0x38>
   10350:	40c585b3          	sub	a1,a1,a2
   10354:	00d56533          	or	a0,a0,a3
   10358:	0016d693          	srli	a3,a3,0x1
   1035c:	00165613          	srli	a2,a2,0x1
   10360:	fe0696e3          	bnez	a3,1034c <__udivsi3+0x2c>
   10364:	00008067          	ret

00010368 <__umodsi3>:
   10368:	00008293          	mv	t0,ra
   1036c:	fb5ff0ef          	jal	ra,10320 <__udivsi3>
   10370:	00058513          	mv	a0,a1
   10374:	00028067          	jr	t0
   10378:	40a00533          	neg	a0,a0
   1037c:	00b04863          	bgtz	a1,1038c <__umodsi3+0x24>
   10380:	40b005b3          	neg	a1,a1
   10384:	f9dff06f          	j	10320 <__udivsi3>
   10388:	40b005b3          	neg	a1,a1
   1038c:	00008293          	mv	t0,ra
   10390:	f91ff0ef          	jal	ra,10320 <__udivsi3>
   10394:	40a00533          	neg	a0,a0
   10398:	00028067          	jr	t0

0001039c <__modsi3>:
   1039c:	00008293          	mv	t0,ra
   103a0:	0005ca63          	bltz	a1,103b4 <__modsi3+0x18>
   103a4:	00054c63          	bltz	a0,103bc <__modsi3+0x20>
   103a8:	f79ff0ef          	jal	ra,10320 <__udivsi3>
   103ac:	00058513          	mv	a0,a1
   103b0:	00028067          	jr	t0
   103b4:	40b005b3          	neg	a1,a1
   103b8:	fe0558e3          	bgez	a0,103a8 <__modsi3+0xc>
   103bc:	40a00533          	neg	a0,a0
   103c0:	f61ff0ef          	jal	ra,10320 <__udivsi3>
   103c4:	40b00533          	neg	a0,a1
   103c8:	00028067          	jr	t0

000103cc <exit>:
   103cc:	ff010113          	addi	sp,sp,-16
   103d0:	00000593          	li	a1,0
   103d4:	00812423          	sw	s0,8(sp)
   103d8:	00112623          	sw	ra,12(sp)
   103dc:	00050413          	mv	s0,a0
   103e0:	18c000ef          	jal	ra,1056c <__call_exitprocs>
   103e4:	c281a503          	lw	a0,-984(gp) # 11c80 <_global_impure_ptr>
   103e8:	03c52783          	lw	a5,60(a0)
   103ec:	00078463          	beqz	a5,103f4 <exit+0x28>
   103f0:	000780e7          	jalr	a5
   103f4:	00040513          	mv	a0,s0
   103f8:	39c000ef          	jal	ra,10794 <_exit>

000103fc <__libc_init_array>:
   103fc:	ff010113          	addi	sp,sp,-16
   10400:	00812423          	sw	s0,8(sp)
   10404:	01212023          	sw	s2,0(sp)
   10408:	00001417          	auipc	s0,0x1
   1040c:	44440413          	addi	s0,s0,1092 # 1184c <__init_array_start>
   10410:	00001917          	auipc	s2,0x1
   10414:	43c90913          	addi	s2,s2,1084 # 1184c <__init_array_start>
   10418:	40890933          	sub	s2,s2,s0
   1041c:	00112623          	sw	ra,12(sp)
   10420:	00912223          	sw	s1,4(sp)
   10424:	40295913          	srai	s2,s2,0x2
   10428:	00090e63          	beqz	s2,10444 <__libc_init_array+0x48>
   1042c:	00000493          	li	s1,0
   10430:	00042783          	lw	a5,0(s0)
   10434:	00148493          	addi	s1,s1,1
   10438:	00440413          	addi	s0,s0,4
   1043c:	000780e7          	jalr	a5
   10440:	fe9918e3          	bne	s2,s1,10430 <__libc_init_array+0x34>
   10444:	00001417          	auipc	s0,0x1
   10448:	40840413          	addi	s0,s0,1032 # 1184c <__init_array_start>
   1044c:	00001917          	auipc	s2,0x1
   10450:	40890913          	addi	s2,s2,1032 # 11854 <__do_global_dtors_aux_fini_array_entry>
   10454:	40890933          	sub	s2,s2,s0
   10458:	40295913          	srai	s2,s2,0x2
   1045c:	00090e63          	beqz	s2,10478 <__libc_init_array+0x7c>
   10460:	00000493          	li	s1,0
   10464:	00042783          	lw	a5,0(s0)
   10468:	00148493          	addi	s1,s1,1
   1046c:	00440413          	addi	s0,s0,4
   10470:	000780e7          	jalr	a5
   10474:	fe9918e3          	bne	s2,s1,10464 <__libc_init_array+0x68>
   10478:	00c12083          	lw	ra,12(sp)
   1047c:	00812403          	lw	s0,8(sp)
   10480:	00412483          	lw	s1,4(sp)
   10484:	00012903          	lw	s2,0(sp)
   10488:	01010113          	addi	sp,sp,16
   1048c:	00008067          	ret

00010490 <memset>:
   10490:	00f00313          	li	t1,15
   10494:	00050713          	mv	a4,a0
   10498:	02c37e63          	bgeu	t1,a2,104d4 <memset+0x44>
   1049c:	00f77793          	andi	a5,a4,15
   104a0:	0a079063          	bnez	a5,10540 <memset+0xb0>
   104a4:	08059263          	bnez	a1,10528 <memset+0x98>
   104a8:	ff067693          	andi	a3,a2,-16
   104ac:	00f67613          	andi	a2,a2,15
   104b0:	00e686b3          	add	a3,a3,a4
   104b4:	00b72023          	sw	a1,0(a4)
   104b8:	00b72223          	sw	a1,4(a4)
   104bc:	00b72423          	sw	a1,8(a4)
   104c0:	00b72623          	sw	a1,12(a4)
   104c4:	01070713          	addi	a4,a4,16
   104c8:	fed766e3          	bltu	a4,a3,104b4 <memset+0x24>
   104cc:	00061463          	bnez	a2,104d4 <memset+0x44>
   104d0:	00008067          	ret
   104d4:	40c306b3          	sub	a3,t1,a2
   104d8:	00269693          	slli	a3,a3,0x2
   104dc:	00000297          	auipc	t0,0x0
   104e0:	005686b3          	add	a3,a3,t0
   104e4:	00c68067          	jr	12(a3)
   104e8:	00b70723          	sb	a1,14(a4)
   104ec:	00b706a3          	sb	a1,13(a4)
   104f0:	00b70623          	sb	a1,12(a4)
   104f4:	00b705a3          	sb	a1,11(a4)
   104f8:	00b70523          	sb	a1,10(a4)
   104fc:	00b704a3          	sb	a1,9(a4)
   10500:	00b70423          	sb	a1,8(a4)
   10504:	00b703a3          	sb	a1,7(a4)
   10508:	00b70323          	sb	a1,6(a4)
   1050c:	00b702a3          	sb	a1,5(a4)
   10510:	00b70223          	sb	a1,4(a4)
   10514:	00b701a3          	sb	a1,3(a4)
   10518:	00b70123          	sb	a1,2(a4)
   1051c:	00b700a3          	sb	a1,1(a4)
   10520:	00b70023          	sb	a1,0(a4)
   10524:	00008067          	ret
   10528:	0ff5f593          	andi	a1,a1,255
   1052c:	00859693          	slli	a3,a1,0x8
   10530:	00d5e5b3          	or	a1,a1,a3
   10534:	01059693          	slli	a3,a1,0x10
   10538:	00d5e5b3          	or	a1,a1,a3
   1053c:	f6dff06f          	j	104a8 <memset+0x18>
   10540:	00279693          	slli	a3,a5,0x2
   10544:	00000297          	auipc	t0,0x0
   10548:	005686b3          	add	a3,a3,t0
   1054c:	00008293          	mv	t0,ra
   10550:	fa0680e7          	jalr	-96(a3)
   10554:	00028093          	mv	ra,t0
   10558:	ff078793          	addi	a5,a5,-16
   1055c:	40f70733          	sub	a4,a4,a5
   10560:	00f60633          	add	a2,a2,a5
   10564:	f6c378e3          	bgeu	t1,a2,104d4 <memset+0x44>
   10568:	f3dff06f          	j	104a4 <memset+0x14>

0001056c <__call_exitprocs>:
   1056c:	fd010113          	addi	sp,sp,-48
   10570:	01412c23          	sw	s4,24(sp)
   10574:	c281aa03          	lw	s4,-984(gp) # 11c80 <_global_impure_ptr>
   10578:	03212023          	sw	s2,32(sp)
   1057c:	148a2903          	lw	s2,328(s4)
   10580:	02112623          	sw	ra,44(sp)
   10584:	02812423          	sw	s0,40(sp)
   10588:	02912223          	sw	s1,36(sp)
   1058c:	01312e23          	sw	s3,28(sp)
   10590:	01512a23          	sw	s5,20(sp)
   10594:	01612823          	sw	s6,16(sp)
   10598:	01712623          	sw	s7,12(sp)
   1059c:	01812423          	sw	s8,8(sp)
   105a0:	04090063          	beqz	s2,105e0 <__call_exitprocs+0x74>
   105a4:	00050b13          	mv	s6,a0
   105a8:	00058b93          	mv	s7,a1
   105ac:	00100a93          	li	s5,1
   105b0:	fff00993          	li	s3,-1
   105b4:	00492483          	lw	s1,4(s2)
   105b8:	fff48413          	addi	s0,s1,-1
   105bc:	02044263          	bltz	s0,105e0 <__call_exitprocs+0x74>
   105c0:	00249493          	slli	s1,s1,0x2
   105c4:	009904b3          	add	s1,s2,s1
   105c8:	040b8463          	beqz	s7,10610 <__call_exitprocs+0xa4>
   105cc:	1044a783          	lw	a5,260(s1)
   105d0:	05778063          	beq	a5,s7,10610 <__call_exitprocs+0xa4>
   105d4:	fff40413          	addi	s0,s0,-1
   105d8:	ffc48493          	addi	s1,s1,-4
   105dc:	ff3416e3          	bne	s0,s3,105c8 <__call_exitprocs+0x5c>
   105e0:	02c12083          	lw	ra,44(sp)
   105e4:	02812403          	lw	s0,40(sp)
   105e8:	02412483          	lw	s1,36(sp)
   105ec:	02012903          	lw	s2,32(sp)
   105f0:	01c12983          	lw	s3,28(sp)
   105f4:	01812a03          	lw	s4,24(sp)
   105f8:	01412a83          	lw	s5,20(sp)
   105fc:	01012b03          	lw	s6,16(sp)
   10600:	00c12b83          	lw	s7,12(sp)
   10604:	00812c03          	lw	s8,8(sp)
   10608:	03010113          	addi	sp,sp,48
   1060c:	00008067          	ret
   10610:	00492783          	lw	a5,4(s2)
   10614:	0044a683          	lw	a3,4(s1)
   10618:	fff78793          	addi	a5,a5,-1
   1061c:	04878e63          	beq	a5,s0,10678 <__call_exitprocs+0x10c>
   10620:	0004a223          	sw	zero,4(s1)
   10624:	fa0688e3          	beqz	a3,105d4 <__call_exitprocs+0x68>
   10628:	18892783          	lw	a5,392(s2)
   1062c:	008a9733          	sll	a4,s5,s0
   10630:	00492c03          	lw	s8,4(s2)
   10634:	00f777b3          	and	a5,a4,a5
   10638:	02079263          	bnez	a5,1065c <__call_exitprocs+0xf0>
   1063c:	000680e7          	jalr	a3
   10640:	00492703          	lw	a4,4(s2)
   10644:	148a2783          	lw	a5,328(s4)
   10648:	01871463          	bne	a4,s8,10650 <__call_exitprocs+0xe4>
   1064c:	f92784e3          	beq	a5,s2,105d4 <__call_exitprocs+0x68>
   10650:	f80788e3          	beqz	a5,105e0 <__call_exitprocs+0x74>
   10654:	00078913          	mv	s2,a5
   10658:	f5dff06f          	j	105b4 <__call_exitprocs+0x48>
   1065c:	18c92783          	lw	a5,396(s2)
   10660:	0844a583          	lw	a1,132(s1)
   10664:	00f77733          	and	a4,a4,a5
   10668:	00071c63          	bnez	a4,10680 <__call_exitprocs+0x114>
   1066c:	000b0513          	mv	a0,s6
   10670:	000680e7          	jalr	a3
   10674:	fcdff06f          	j	10640 <__call_exitprocs+0xd4>
   10678:	00892223          	sw	s0,4(s2)
   1067c:	fa9ff06f          	j	10624 <__call_exitprocs+0xb8>
   10680:	00058513          	mv	a0,a1
   10684:	000680e7          	jalr	a3
   10688:	fb9ff06f          	j	10640 <__call_exitprocs+0xd4>

0001068c <atexit>:
   1068c:	00050593          	mv	a1,a0
   10690:	00000693          	li	a3,0
   10694:	00000613          	li	a2,0
   10698:	00000513          	li	a0,0
   1069c:	0600006f          	j	106fc <__register_exitproc>

000106a0 <__libc_fini_array>:
   106a0:	ff010113          	addi	sp,sp,-16
   106a4:	00812423          	sw	s0,8(sp)
   106a8:	00001797          	auipc	a5,0x1
   106ac:	1b078793          	addi	a5,a5,432 # 11858 <impure_data>
   106b0:	00001417          	auipc	s0,0x1
   106b4:	1a440413          	addi	s0,s0,420 # 11854 <__do_global_dtors_aux_fini_array_entry>
   106b8:	408787b3          	sub	a5,a5,s0
   106bc:	00912223          	sw	s1,4(sp)
   106c0:	00112623          	sw	ra,12(sp)
   106c4:	4027d493          	srai	s1,a5,0x2
   106c8:	02048063          	beqz	s1,106e8 <__libc_fini_array+0x48>
   106cc:	ffc78793          	addi	a5,a5,-4
   106d0:	00878433          	add	s0,a5,s0
   106d4:	00042783          	lw	a5,0(s0)
   106d8:	fff48493          	addi	s1,s1,-1
   106dc:	ffc40413          	addi	s0,s0,-4
   106e0:	000780e7          	jalr	a5
   106e4:	fe0498e3          	bnez	s1,106d4 <__libc_fini_array+0x34>
   106e8:	00c12083          	lw	ra,12(sp)
   106ec:	00812403          	lw	s0,8(sp)
   106f0:	00412483          	lw	s1,4(sp)
   106f4:	01010113          	addi	sp,sp,16
   106f8:	00008067          	ret

000106fc <__register_exitproc>:
   106fc:	c281a703          	lw	a4,-984(gp) # 11c80 <_global_impure_ptr>
   10700:	14872783          	lw	a5,328(a4)
   10704:	04078c63          	beqz	a5,1075c <__register_exitproc+0x60>
   10708:	0047a703          	lw	a4,4(a5)
   1070c:	01f00813          	li	a6,31
   10710:	06e84e63          	blt	a6,a4,1078c <__register_exitproc+0x90>
   10714:	00271813          	slli	a6,a4,0x2
   10718:	02050663          	beqz	a0,10744 <__register_exitproc+0x48>
   1071c:	01078333          	add	t1,a5,a6
   10720:	08c32423          	sw	a2,136(t1) # 101bc <_Z8find_rowPiii+0x7c>
   10724:	1887a883          	lw	a7,392(a5)
   10728:	00100613          	li	a2,1
   1072c:	00e61633          	sll	a2,a2,a4
   10730:	00c8e8b3          	or	a7,a7,a2
   10734:	1917a423          	sw	a7,392(a5)
   10738:	10d32423          	sw	a3,264(t1)
   1073c:	00200693          	li	a3,2
   10740:	02d50463          	beq	a0,a3,10768 <__register_exitproc+0x6c>
   10744:	00170713          	addi	a4,a4,1
   10748:	00e7a223          	sw	a4,4(a5)
   1074c:	010787b3          	add	a5,a5,a6
   10750:	00b7a423          	sw	a1,8(a5)
   10754:	00000513          	li	a0,0
   10758:	00008067          	ret
   1075c:	14c70793          	addi	a5,a4,332
   10760:	14f72423          	sw	a5,328(a4)
   10764:	fa5ff06f          	j	10708 <__register_exitproc+0xc>
   10768:	18c7a683          	lw	a3,396(a5)
   1076c:	00170713          	addi	a4,a4,1
   10770:	00e7a223          	sw	a4,4(a5)
   10774:	00c6e633          	or	a2,a3,a2
   10778:	18c7a623          	sw	a2,396(a5)
   1077c:	010787b3          	add	a5,a5,a6
   10780:	00b7a423          	sw	a1,8(a5)
   10784:	00000513          	li	a0,0
   10788:	00008067          	ret
   1078c:	fff00513          	li	a0,-1
   10790:	00008067          	ret

00010794 <_exit>:
   10794:	00000593          	li	a1,0
   10798:	00000613          	li	a2,0
   1079c:	00000693          	li	a3,0
   107a0:	00000713          	li	a4,0
   107a4:	00000793          	li	a5,0
   107a8:	05d00893          	li	a7,93
   107ac:	00000073          	ecall
   107b0:	00054463          	bltz	a0,107b8 <_exit+0x24>
   107b4:	0000006f          	j	107b4 <_exit+0x20>
   107b8:	ff010113          	addi	sp,sp,-16
   107bc:	00812423          	sw	s0,8(sp)
   107c0:	00050413          	mv	s0,a0
   107c4:	00112623          	sw	ra,12(sp)
   107c8:	40800433          	neg	s0,s0
   107cc:	00c000ef          	jal	ra,107d8 <__errno>
   107d0:	00852023          	sw	s0,0(a0)
   107d4:	0000006f          	j	107d4 <_exit+0x40>

000107d8 <__errno>:
   107d8:	c301a503          	lw	a0,-976(gp) # 11c88 <_impure_ptr>
   107dc:	00008067          	ret

Disassembly of section .eh_frame:

000117e0 <__EH_FRAME_BEGIN__>:
   117e0:	0010                	0x10
   117e2:	0000                	unimp
   117e4:	0000                	unimp
   117e6:	0000                	unimp
   117e8:	00527a03          	0x527a03
   117ec:	7c01                	lui	s8,0xfffe0
   117ee:	0101                	addi	sp,sp,0
   117f0:	00020d1b          	0x20d1b
   117f4:	0024                	addi	s1,sp,8
   117f6:	0000                	unimp
   117f8:	0018                	0x18
   117fa:	0000                	unimp
   117fc:	e944                	fsw	fs1,20(a0)
   117fe:	ffff                	0xffff
   11800:	00cc                	addi	a1,sp,68
   11802:	0000                	unimp
   11804:	4400                	lw	s0,8(s0)
   11806:	400e                	0x400e
   11808:	8148                	0x8148
   1180a:	8801                	andi	s0,s0,0
   1180c:	4402                	lw	s0,0(sp)
   1180e:	080c                	addi	a1,sp,16
   11810:	0200                	addi	s0,sp,256
   11812:	c1b0                	sw	a2,64(a1)
   11814:	c844                	sw	s1,20(s0)
   11816:	020c                	addi	a1,sp,256
   11818:	4440                	lw	s0,12(s0)
   1181a:	000e                	c.slli	zero,0x3
   1181c:	0028                	addi	a0,sp,8
   1181e:	0000                	unimp
   11820:	0040                	addi	s0,sp,4
   11822:	0000                	unimp
   11824:	e9e8                	fsw	fa0,84(a1)
   11826:	ffff                	0xffff
   11828:	00e8                	addi	a0,sp,76
   1182a:	0000                	unimp
   1182c:	4400                	lw	s0,8(s0)
   1182e:	b00e                	fsd	ft3,32(sp)
   11830:	4801                	li	a6,0
   11832:	0181                	addi	gp,gp,0
   11834:	0288                	addi	a0,sp,320
   11836:	0c44                	addi	s1,sp,532
   11838:	0008                	0x8
   1183a:	cc02                	sw	zero,24(sp)
   1183c:	44c1                	li	s1,16
   1183e:	0cc8                	addi	a0,sp,596
   11840:	b002                	fsd	ft0,32(sp)
   11842:	4401                	li	s0,0
   11844:	000e                	c.slli	zero,0x3
	...

00011848 <__FRAME_END__>:
   11848:	0000                	unimp
	...

Disassembly of section .init_array:

0001184c <__init_array_start>:
   1184c:	0074                	addi	a3,sp,12
   1184e:	0001                	nop

00011850 <__frame_dummy_init_array_entry>:
   11850:	0120                	addi	s0,sp,136
   11852:	0001                	nop

Disassembly of section .fini_array:

00011854 <__do_global_dtors_aux_fini_array_entry>:
   11854:	00d8                	addi	a4,sp,68
   11856:	0001                	nop

Disassembly of section .data:

00011858 <impure_data>:
   11858:	0000                	unimp
   1185a:	0000                	unimp
   1185c:	1b44                	addi	s1,sp,436
   1185e:	0001                	nop
   11860:	1bac                	addi	a1,sp,504
   11862:	0001                	nop
   11864:	1c14                	addi	a3,sp,560
   11866:	0001                	nop
	...
   11900:	0001                	nop
   11902:	0000                	unimp
   11904:	0000                	unimp
   11906:	0000                	unimp
   11908:	330e                	fld	ft6,224(sp)
   1190a:	abcd                	j	11efc <__BSS_END__+0x254>
   1190c:	1234                	addi	a3,sp,296
   1190e:	e66d                	bnez	a2,119f8 <impure_data+0x1a0>
   11910:	deec                	sw	a1,124(a3)
   11912:	0005                	c.nop	1
   11914:	0000000b          	0xb
	...

Disassembly of section .sdata:

00011c80 <_global_impure_ptr>:
   11c80:	1858                	addi	a4,sp,52
   11c82:	0001                	nop

00011c84 <__dso_handle>:
   11c84:	0000                	unimp
	...

00011c88 <_impure_ptr>:
   11c88:	1858                	addi	a4,sp,52
   11c8a:	0001                	nop

Disassembly of section .bss:

00011c8c <completed.1>:
   11c8c:	0000                	unimp
	...

00011c90 <object.0>:
	...

Disassembly of section .comment:

00000000 <.comment>:
   0:	3a434347          	fmsub.d	ft6,ft6,ft4,ft7,rmm
   4:	2820                	fld	fs0,80(s0)
   6:	29554e47          	fmsub.s	ft8,fa0,fs5,ft5,rmm
   a:	3120                	fld	fs0,96(a0)
   c:	2e30                	fld	fa2,88(a2)
   e:	2e32                	fld	ft8,264(sp)
  10:	0030                	addi	a2,sp,8

Disassembly of section .riscv.attributes:

00000000 <.riscv.attributes>:
   0:	1b41                	addi	s6,s6,-16
   2:	0000                	unimp
   4:	7200                	flw	fs0,32(a2)
   6:	7369                	lui	t1,0xffffa
   8:	01007663          	bgeu	zero,a6,14 <register_fini-0x10060>
   c:	0011                	c.nop	4
   e:	0000                	unimp
  10:	1004                	addi	s1,sp,32
  12:	7205                	lui	tp,0xfffe1
  14:	3376                	fld	ft6,376(sp)
  16:	6932                	flw	fs2,12(sp)
  18:	7032                	flw	ft0,44(sp)
  1a:	0030                	addi	a2,sp,8

Disassembly of section .debug_aranges:

00000000 <.debug_aranges>:
   0:	001c                	0x1c
   2:	0000                	unimp
   4:	0002                	c.slli64	zero
   6:	0000                	unimp
   8:	0000                	unimp
   a:	0004                	0x4
   c:	0000                	unimp
   e:	0000                	unimp
  10:	02f4                	addi	a3,sp,332
  12:	0001                	nop
  14:	0024                	addi	s1,sp,8
	...
  1e:	0000                	unimp
  20:	001c                	0x1c
  22:	0000                	unimp
  24:	0002                	c.slli64	zero
  26:	0026                	c.slli	zero,0x9
  28:	0000                	unimp
  2a:	0004                	0x4
  2c:	0000                	unimp
  2e:	0000                	unimp
  30:	0318                	addi	a4,sp,384
  32:	0001                	nop
  34:	00b4                	addi	a3,sp,72
	...

Disassembly of section .debug_info:

00000000 <.debug_info>:
   0:	0022                	c.slli	zero,0x8
   2:	0000                	unimp
   4:	0002                	c.slli64	zero
   6:	0000                	unimp
   8:	0000                	unimp
   a:	0104                	addi	s1,sp,128
   c:	0000                	unimp
   e:	0000                	unimp
  10:	02f4                	addi	a3,sp,332
  12:	0001                	nop
  14:	0318                	addi	a4,sp,384
  16:	0001                	nop
  18:	0000                	unimp
  1a:	0000                	unimp
  1c:	0050                	addi	a2,sp,4
  1e:	0000                	unimp
  20:	00d2                	slli	ra,ra,0x14
  22:	0000                	unimp
  24:	8001                	c.srli64	s0
  26:	0022                	c.slli	zero,0x8
  28:	0000                	unimp
  2a:	0002                	c.slli64	zero
  2c:	0014                	0x14
  2e:	0000                	unimp
  30:	0104                	addi	s1,sp,128
  32:	00b0                	addi	a2,sp,72
  34:	0000                	unimp
  36:	0318                	addi	a4,sp,384
  38:	0001                	nop
  3a:	03cc                	addi	a1,sp,452
  3c:	0001                	nop
  3e:	00de                	slli	ra,ra,0x17
  40:	0000                	unimp
  42:	0050                	addi	a2,sp,4
  44:	0000                	unimp
  46:	00d2                	slli	ra,ra,0x14
  48:	0000                	unimp
  4a:	8001                	c.srli64	s0

Disassembly of section .debug_abbrev:

00000000 <.debug_abbrev>:
   0:	1101                	addi	sp,sp,-32
   2:	1000                	addi	s0,sp,32
   4:	1106                	slli	sp,sp,0x21
   6:	1201                	addi	tp,tp,-32
   8:	0301                	addi	t1,t1,0
   a:	1b0e                	slli	s6,s6,0x23
   c:	250e                	fld	fa0,192(sp)
   e:	130e                	slli	t1,t1,0x23
  10:	0005                	c.nop	1
  12:	0000                	unimp
  14:	1101                	addi	sp,sp,-32
  16:	1000                	addi	s0,sp,32
  18:	1106                	slli	sp,sp,0x21
  1a:	1201                	addi	tp,tp,-32
  1c:	0301                	addi	t1,t1,0
  1e:	1b0e                	slli	s6,s6,0x23
  20:	250e                	fld	fa0,192(sp)
  22:	130e                	slli	t1,t1,0x23
  24:	0005                	c.nop	1
	...

Disassembly of section .debug_line:

00000000 <.debug_line>:
   0:	00ac                	addi	a1,sp,72
   2:	0000                	unimp
   4:	00660003          	lb	zero,6(a2)
   8:	0000                	unimp
   a:	0101                	addi	sp,sp,0
   c:	000d0efb          	0xd0efb
  10:	0101                	addi	sp,sp,0
  12:	0101                	addi	sp,sp,0
  14:	0000                	unimp
  16:	0100                	addi	s0,sp,128
  18:	0000                	unimp
  1a:	2f01                	jal	72a <register_fini-0xf94a>
  1c:	6f68                	flw	fa0,92(a4)
  1e:	656d                	lui	a0,0x1b
  20:	6975622f          	0x6975622f
  24:	646c                	flw	fa1,76(s0)
  26:	7265                	lui	tp,0xffff9
  28:	2d63732f          	0x2d63732f
  2c:	6469                	lui	s0,0x1a
  2e:	2f65                	jal	7e6 <register_fini-0xf88e>
  30:	6972                	flw	fs2,28(sp)
  32:	2d766373          	csrrsi	t1,0x2d7,12
  36:	2d756e67          	0x2d756e67
  3a:	6f74                	flw	fa3,92(a4)
  3c:	68636c6f          	jal	s8,366c2 <__global_pointer$+0x2466a>
  40:	6961                	lui	s2,0x18
  42:	2f6e                	fld	ft10,216(sp)
  44:	6972                	flw	fs2,28(sp)
  46:	2d766373          	csrrsi	t1,0x2d7,12
  4a:	2f636367          	0x2f636367
  4e:	696c                	flw	fa1,84(a0)
  50:	6762                	flw	fa4,24(sp)
  52:	632f6363          	bltu	t5,s2,678 <register_fini-0xf9fc>
  56:	69666e6f          	jal	t3,666ec <__global_pointer$+0x54694>
  5a:	69722f67          	0x69722f67
  5e:	00766373          	csrrsi	t1,0x7,12
  62:	6d00                	flw	fs0,24(a0)
  64:	6c75                	lui	s8,0x1d
  66:	6964                	flw	fs1,84(a0)
  68:	00532e33          	slt	t3,t1,t0
  6c:	0001                	nop
  6e:	0000                	unimp
  70:	0500                	addi	s0,sp,640
  72:	f402                	fsw	ft0,40(sp)
  74:	0102                	c.slli64	sp
  76:	0300                	addi	s0,sp,384
  78:	0124                	addi	s1,sp,136
  7a:	04090103          	lb	sp,64(s2) # 18040 <__global_pointer$+0x5fe8>
  7e:	0100                	addi	s0,sp,128
  80:	04090203          	lb	tp,64(s2)
  84:	0100                	addi	s0,sp,128
  86:	04090103          	lb	sp,64(s2)
  8a:	0100                	addi	s0,sp,128
  8c:	04090103          	lb	sp,64(s2)
  90:	0100                	addi	s0,sp,128
  92:	04090203          	lb	tp,64(s2)
  96:	0100                	addi	s0,sp,128
  98:	04090103          	lb	sp,64(s2)
  9c:	0100                	addi	s0,sp,128
  9e:	04090103          	lb	sp,64(s2)
  a2:	0100                	addi	s0,sp,128
  a4:	04090103          	lb	sp,64(s2)
  a8:	0100                	addi	s0,sp,128
  aa:	0409                	addi	s0,s0,2
  ac:	0000                	unimp
  ae:	0101                	addi	sp,sp,0
  b0:	0182                	c.slli64	gp
  b2:	0000                	unimp
  b4:	00630003          	lb	zero,6(t1) # ffffa006 <__global_pointer$+0xfffe7fae>
  b8:	0000                	unimp
  ba:	0101                	addi	sp,sp,0
  bc:	000d0efb          	0xd0efb
  c0:	0101                	addi	sp,sp,0
  c2:	0101                	addi	sp,sp,0
  c4:	0000                	unimp
  c6:	0100                	addi	s0,sp,128
  c8:	0000                	unimp
  ca:	2f01                	jal	7da <register_fini-0xf89a>
  cc:	6f68                	flw	fa0,92(a4)
  ce:	656d                	lui	a0,0x1b
  d0:	6975622f          	0x6975622f
  d4:	646c                	flw	fa1,76(s0)
  d6:	7265                	lui	tp,0xffff9
  d8:	2d63732f          	0x2d63732f
  dc:	6469                	lui	s0,0x1a
  de:	2f65                	jal	896 <register_fini-0xf7de>
  e0:	6972                	flw	fs2,28(sp)
  e2:	2d766373          	csrrsi	t1,0x2d7,12
  e6:	2d756e67          	0x2d756e67
  ea:	6f74                	flw	fa3,92(a4)
  ec:	68636c6f          	jal	s8,36772 <__global_pointer$+0x2471a>
  f0:	6961                	lui	s2,0x18
  f2:	2f6e                	fld	ft10,216(sp)
  f4:	6972                	flw	fs2,28(sp)
  f6:	2d766373          	csrrsi	t1,0x2d7,12
  fa:	2f636367          	0x2f636367
  fe:	696c                	flw	fa1,84(a0)
 100:	6762                	flw	fa4,24(sp)
 102:	632f6363          	bltu	t5,s2,728 <register_fini-0xf94c>
 106:	69666e6f          	jal	t3,6679c <__global_pointer$+0x54744>
 10a:	69722f67          	0x69722f67
 10e:	00766373          	csrrsi	t1,0x7,12
 112:	6400                	flw	fs0,8(s0)
 114:	7669                	lui	a2,0xffffa
 116:	532e                	lw	t1,232(sp)
 118:	0100                	addi	s0,sp,128
 11a:	0000                	unimp
 11c:	0000                	unimp
 11e:	0205                	addi	tp,tp,1
 120:	0318                	addi	a4,sp,384
 122:	0001                	nop
 124:	0100c403          	lbu	s0,16(ra) # 10110 <__do_global_dtors_aux+0x38>
 128:	04090103          	lb	sp,64(s2) # 18040 <__global_pointer$+0x5fe8>
 12c:	0100                	addi	s0,sp,128
 12e:	04090403          	lb	s0,64(s2)
 132:	0100                	addi	s0,sp,128
 134:	04090103          	lb	sp,64(s2)
 138:	0100                	addi	s0,sp,128
 13a:	04090103          	lb	sp,64(s2)
 13e:	0100                	addi	s0,sp,128
 140:	04090103          	lb	sp,64(s2)
 144:	0100                	addi	s0,sp,128
 146:	04090103          	lb	sp,64(s2)
 14a:	0100                	addi	s0,sp,128
 14c:	04090103          	lb	sp,64(s2)
 150:	0100                	addi	s0,sp,128
 152:	04090203          	lb	tp,64(s2)
 156:	0100                	addi	s0,sp,128
 158:	04090103          	lb	sp,64(s2)
 15c:	0100                	addi	s0,sp,128
 15e:	04090103          	lb	sp,64(s2)
 162:	0100                	addi	s0,sp,128
 164:	04090103          	lb	sp,64(s2)
 168:	0100                	addi	s0,sp,128
 16a:	04090203          	lb	tp,64(s2)
 16e:	0100                	addi	s0,sp,128
 170:	04090203          	lb	tp,64(s2)
 174:	0100                	addi	s0,sp,128
 176:	04090103          	lb	sp,64(s2)
 17a:	0100                	addi	s0,sp,128
 17c:	04090103          	lb	sp,64(s2)
 180:	0100                	addi	s0,sp,128
 182:	04090203          	lb	tp,64(s2)
 186:	0100                	addi	s0,sp,128
 188:	04090103          	lb	sp,64(s2)
 18c:	0100                	addi	s0,sp,128
 18e:	04090103          	lb	sp,64(s2)
 192:	0100                	addi	s0,sp,128
 194:	04090203          	lb	tp,64(s2)
 198:	0100                	addi	s0,sp,128
 19a:	04090503          	lb	a0,64(s2)
 19e:	0100                	addi	s0,sp,128
 1a0:	04090103          	lb	sp,64(s2)
 1a4:	0100                	addi	s0,sp,128
 1a6:	04090103          	lb	sp,64(s2)
 1aa:	0100                	addi	s0,sp,128
 1ac:	04090103          	lb	sp,64(s2)
 1b0:	0100                	addi	s0,sp,128
 1b2:	04090503          	lb	a0,64(s2)
 1b6:	0100                	addi	s0,sp,128
 1b8:	04090203          	lb	tp,64(s2)
 1bc:	0100                	addi	s0,sp,128
 1be:	04090203          	lb	tp,64(s2)
 1c2:	0100                	addi	s0,sp,128
 1c4:	04090103          	lb	sp,64(s2)
 1c8:	0100                	addi	s0,sp,128
 1ca:	04090203          	lb	tp,64(s2)
 1ce:	0100                	addi	s0,sp,128
 1d0:	04090203          	lb	tp,64(s2)
 1d4:	0100                	addi	s0,sp,128
 1d6:	04090103          	lb	sp,64(s2)
 1da:	0100                	addi	s0,sp,128
 1dc:	04090103          	lb	sp,64(s2)
 1e0:	0100                	addi	s0,sp,128
 1e2:	04090103          	lb	sp,64(s2)
 1e6:	0100                	addi	s0,sp,128
 1e8:	04090403          	lb	s0,64(s2)
 1ec:	0100                	addi	s0,sp,128
 1ee:	04090103          	lb	sp,64(s2)
 1f2:	0100                	addi	s0,sp,128
 1f4:	04090103          	lb	sp,64(s2)
 1f8:	0100                	addi	s0,sp,128
 1fa:	04090203          	lb	tp,64(s2)
 1fe:	0100                	addi	s0,sp,128
 200:	04090103          	lb	sp,64(s2)
 204:	0100                	addi	s0,sp,128
 206:	04090103          	lb	sp,64(s2)
 20a:	0100                	addi	s0,sp,128
 20c:	04090203          	lb	tp,64(s2)
 210:	0100                	addi	s0,sp,128
 212:	04090103          	lb	sp,64(s2)
 216:	0100                	addi	s0,sp,128
 218:	04090203          	lb	tp,64(s2)
 21c:	0100                	addi	s0,sp,128
 21e:	04090103          	lb	sp,64(s2)
 222:	0100                	addi	s0,sp,128
 224:	04090103          	lb	sp,64(s2)
 228:	0100                	addi	s0,sp,128
 22a:	04090103          	lb	sp,64(s2)
 22e:	0100                	addi	s0,sp,128
 230:	0409                	addi	s0,s0,2
 232:	0000                	unimp
 234:	0101                	addi	sp,sp,0

Disassembly of section .debug_str:

00000000 <.debug_str>:
   0:	6d6f682f          	0x6d6f682f
   4:	2f65                	jal	7bc <register_fini-0xf8b8>
   6:	7562                	flw	fa0,56(sp)
   8:	6c69                	lui	s8,0x1a
   a:	6564                	flw	fs1,76(a0)
   c:	2f72                	fld	ft10,280(sp)
   e:	692d6373          	csrrsi	t1,0x692,26
  12:	6564                	flw	fs1,76(a0)
  14:	7369722f          	0x7369722f
  18:	672d7663          	bgeu	s10,s2,684 <register_fini-0xf9f0>
  1c:	756e                	flw	fa0,248(sp)
  1e:	742d                	lui	s0,0xfffeb
  20:	636c6f6f          	jal	t5,c6656 <__global_pointer$+0xb45fe>
  24:	6168                	flw	fa0,68(a0)
  26:	6e69                	lui	t3,0x1a
  28:	7369722f          	0x7369722f
  2c:	672d7663          	bgeu	s10,s2,698 <register_fini-0xf9dc>
  30:	6c2f6363          	bltu	t5,sp,6f6 <register_fini-0xf97e>
  34:	6269                	lui	tp,0x1a
  36:	2f636367          	0x2f636367
  3a:	666e6f63          	bltu	t3,t1,6b8 <register_fini-0xf9bc>
  3e:	6769                	lui	a4,0x1a
  40:	7369722f          	0x7369722f
  44:	6d2f7663          	bgeu	t5,s2,710 <register_fini-0xf964>
  48:	6c75                	lui	s8,0x1d
  4a:	6964                	flw	fs1,84(a0)
  4c:	00532e33          	slt	t3,t1,t0
  50:	6d6f682f          	0x6d6f682f
  54:	2f65                	jal	80c <register_fini-0xf868>
  56:	7562                	flw	fa0,56(sp)
  58:	6c69                	lui	s8,0x1a
  5a:	6564                	flw	fs1,76(a0)
  5c:	2f72                	fld	ft10,280(sp)
  5e:	692d6373          	csrrsi	t1,0x692,26
  62:	6564                	flw	fs1,76(a0)
  64:	6975622f          	0x6975622f
  68:	646c                	flw	fa1,76(s0)
  6a:	2e30312f          	0x2e30312f
  6e:	2e32                	fld	ft8,264(sp)
  70:	2d30                	fld	fa2,88(a0)
  72:	63626267          	0x63626267
  76:	3239                	jal	fffff984 <__global_pointer$+0xfffed92c>
  78:	3336                	fld	ft6,360(sp)
  7a:	322d                	jal	fffff9a4 <__global_pointer$+0xfffed94c>
  7c:	3031                	jal	fffff888 <__global_pointer$+0xfffed830>
  7e:	54383133          	0x54383133
  82:	3431                	jal	fffffa8e <__global_pointer$+0xfffeda36>
  84:	3231                	jal	fffff990 <__global_pointer$+0xfffed938>
  86:	6363672f          	vamoandei32.v	zero,(t1),v22,v14
  8a:	6c2d                	lui	s8,0xb
  8c:	6e69                	lui	t3,0x1a
  8e:	7875                	lui	a6,0xffffd
  90:	3436                	fld	fs0,360(sp)
  92:	6975622f          	0x6975622f
  96:	646c                	flw	fa1,76(s0)
  98:	672d                	lui	a4,0xb
  9a:	6e2d6363          	bltu	s10,sp,780 <register_fini-0xf8f4>
  9e:	7765                	lui	a4,0xffff9
  a0:	696c                	flw	fa1,84(a0)
  a2:	2d62                	fld	fs10,24(sp)
  a4:	67617473          	csrrci	s0,0x676,2
  a8:	3265                	jal	fffffa50 <__global_pointer$+0xfffed9f8>
  aa:	7369722f          	0x7369722f
  ae:	34367663          	bgeu	a2,gp,3fa <register_fini-0xfc7a>
  b2:	752d                	lui	a0,0xfffeb
  b4:	6b6e                	flw	fs6,216(sp)
  b6:	6f6e                	flw	ft10,216(sp)
  b8:	652d6e77          	0x652d6e77
  bc:	666c                	flw	fa1,76(a2)
  be:	3376722f          	0x3376722f
  c2:	6932                	flw	fs2,12(sp)
  c4:	706c692f          	0x706c692f
  c8:	6c2f3233          	0x6c2f3233
  cc:	6269                	lui	tp,0x1a
  ce:	00636367          	0x636367
  d2:	20554e47          	fmsub.s	ft8,fa0,ft5,ft4,rmm
  d6:	5341                	li	t1,-16
  d8:	3220                	fld	fs0,96(a2)
  da:	332e                	fld	ft6,232(sp)
  dc:	0035                	c.nop	13
  de:	6d6f682f          	0x6d6f682f
  e2:	2f65                	jal	89a <register_fini-0xf7da>
  e4:	7562                	flw	fa0,56(sp)
  e6:	6c69                	lui	s8,0x1a
  e8:	6564                	flw	fs1,76(a0)
  ea:	2f72                	fld	ft10,280(sp)
  ec:	692d6373          	csrrsi	t1,0x692,26
  f0:	6564                	flw	fs1,76(a0)
  f2:	7369722f          	0x7369722f
  f6:	672d7663          	bgeu	s10,s2,762 <register_fini-0xf912>
  fa:	756e                	flw	fa0,248(sp)
  fc:	742d                	lui	s0,0xfffeb
  fe:	636c6f6f          	jal	t5,c6734 <__global_pointer$+0xb46dc>
 102:	6168                	flw	fa0,68(a0)
 104:	6e69                	lui	t3,0x1a
 106:	7369722f          	0x7369722f
 10a:	672d7663          	bgeu	s10,s2,776 <register_fini-0xf8fe>
 10e:	6c2f6363          	bltu	t5,sp,7d4 <register_fini-0xf8a0>
 112:	6269                	lui	tp,0x1a
 114:	2f636367          	0x2f636367
 118:	666e6f63          	bltu	t3,t1,796 <register_fini-0xf8de>
 11c:	6769                	lui	a4,0x1a
 11e:	7369722f          	0x7369722f
 122:	642f7663          	bgeu	t5,sp,76e <register_fini-0xf906>
 126:	7669                	lui	a2,0xffffa
 128:	532e                	lw	t1,232(sp)
	...
